target datalayout = "e-m:e-p270:32:32-p271:32:32-p272:64:64-i64:64-i128:128-f80:128-n8:16:32:64-S128"
target triple = "x86_64-pc-linux-gnu"

%struct.evthread_lock_callbacks = type { i32, i32, ptr, ptr, ptr, ptr }
%struct.timeval = type { i64, i64 }
%struct.sockaddr_storage = type { i16, [118 x i8], i64 }
%struct.evdns_base = type { ptr, ptr, ptr, i32, ptr, i32, i32, i32, i32, %struct.timeval, i32, i32, i32, i32, i16, %struct.timeval, i16, %struct.timeval, %struct.sockaddr_storage, i32, %struct.timeval, i32, i32, i32, i32, i32, i32, ptr, %struct.hosts_list, %struct.evdns_tree, ptr, i32, i32, i32, i32 }
%struct.hosts_list = type { ptr, ptr }
%struct.evdns_tree = type { ptr }
%struct.search_state = type { i32, i32, i32, ptr }

@current_base = internal global ptr null, align 8
@evthread_lock_fns_ = external global %struct.evthread_lock_callbacks, align 8

; Function Attrs: nounwind uwtable
define internal ptr @search_state_new() #0 {
  %1 = alloca ptr, align 8
  %2 = alloca ptr, align 8
  %3 = alloca i32, align 4
  call void @llvm.lifetime.start.p0(i64 8, ptr %2) #10
  %4 = call ptr @event_mm_malloc_(i64 noundef 24)
  store ptr %4, ptr %2, align 8
  %5 = load ptr, ptr %2, align 8
  %6 = icmp ne ptr %5, null
  br i1 %6, label %8, label %7

7:                                                ; preds = %0
  store ptr null, ptr %1, align 8
  store i32 1, ptr %3, align 4
  br label %15

8:                                                ; preds = %0
  %9 = load ptr, ptr %2, align 8
  call void @llvm.memset.p0.i64(ptr align 8 %9, i8 0, i64 24, i1 false)
  %10 = load ptr, ptr %2, align 8
  %11 = getelementptr inbounds nuw %struct.search_state, ptr %10, i32 0, i32 0
  store i32 1, ptr %11, align 8
  %12 = load ptr, ptr %2, align 8
  %13 = getelementptr inbounds nuw %struct.search_state, ptr %12, i32 0, i32 1
  store i32 1, ptr %13, align 4
  %14 = load ptr, ptr %2, align 8
  store ptr %14, ptr %1, align 8
  store i32 1, ptr %3, align 4
  br label %15

15:                                               ; preds = %8, %7
  call void @llvm.lifetime.end.p0(i64 8, ptr %2) #10
  %16 = load ptr, ptr %1, align 8
  ret ptr %16
}

; Function Attrs: nounwind uwtable
define void @evdns_base_search_ndots_set(ptr noundef %0, i32 noundef %1) #0 {
  %3 = alloca ptr, align 8
  %4 = alloca i32, align 4
  store ptr %0, ptr %3, align 8
  store i32 %1, ptr %4, align 4
  br label %5

5:                                                ; preds = %2
  %6 = load ptr, ptr %3, align 8
  %7 = getelementptr inbounds nuw %struct.evdns_base, ptr %6, i32 0, i32 30
  %8 = load ptr, ptr %7, align 8
  %9 = icmp ne ptr %8, null
  br i1 %9, label %10, label %16

10:                                               ; preds = %5
  %11 = load ptr, ptr getelementptr inbounds nuw (%struct.evthread_lock_callbacks, ptr @evthread_lock_fns_, i32 0, i32 4), align 8
  %12 = load ptr, ptr %3, align 8
  %13 = getelementptr inbounds nuw %struct.evdns_base, ptr %12, i32 0, i32 30
  %14 = load ptr, ptr %13, align 8
  %15 = call i32 %11(i32 noundef 0, ptr noundef %14)
  br label %16

16:                                               ; preds = %10, %5
  br label %17

17:                                               ; preds = %16
  %18 = load ptr, ptr %3, align 8
  %19 = getelementptr inbounds nuw %struct.evdns_base, ptr %18, i32 0, i32 27
  %20 = load ptr, ptr %19, align 8
  %21 = icmp ne ptr %20, null
  br i1 %21, label %26, label %22

22:                                               ; preds = %17
  %23 = call ptr @search_state_new()
  %24 = load ptr, ptr %3, align 8
  %25 = getelementptr inbounds nuw %struct.evdns_base, ptr %24, i32 0, i32 27
  store ptr %23, ptr %25, align 8
  br label %26

26:                                               ; preds = %22, %17
  %27 = load ptr, ptr %3, align 8
  %28 = getelementptr inbounds nuw %struct.evdns_base, ptr %27, i32 0, i32 27
  %29 = load ptr, ptr %28, align 8
  %30 = icmp ne ptr %29, null
  br i1 %30, label %31, label %37

31:                                               ; preds = %26
  %32 = load i32, ptr %4, align 4
  %33 = load ptr, ptr %3, align 8
  %34 = getelementptr inbounds nuw %struct.evdns_base, ptr %33, i32 0, i32 27
  %35 = load ptr, ptr %34, align 8
  %36 = getelementptr inbounds nuw %struct.search_state, ptr %35, i32 0, i32 1
  store i32 %32, ptr %36, align 4
  br label %37

37:                                               ; preds = %31, %26
  br label %38

38:                                               ; preds = %37
  %39 = load ptr, ptr %3, align 8
  %40 = getelementptr inbounds nuw %struct.evdns_base, ptr %39, i32 0, i32 30
  %41 = load ptr, ptr %40, align 8
  %42 = icmp ne ptr %41, null
  br i1 %42, label %43, label %49

43:                                               ; preds = %38
  %44 = load ptr, ptr getelementptr inbounds nuw (%struct.evthread_lock_callbacks, ptr @evthread_lock_fns_, i32 0, i32 5), align 8
  %45 = load ptr, ptr %3, align 8
  %46 = getelementptr inbounds nuw %struct.evdns_base, ptr %45, i32 0, i32 30
  %47 = load ptr, ptr %46, align 8
  %48 = call i32 %44(i32 noundef 0, ptr noundef %47)
  br label %49

49:                                               ; preds = %43, %38
  br label %50

50:                                               ; preds = %49
  ret void
}

; Function Attrs: nounwind uwtable
define void @evdns_search_ndots_set(i32 noundef %0) #0 {
  %2 = alloca i32, align 4
  store i32 %0, ptr %2, align 4
  %3 = load ptr, ptr @current_base, align 8
  %4 = load i32, ptr %2, align 4
  call void @evdns_base_search_ndots_set(ptr noundef %3, i32 noundef %4)
  ret void
}