; Function Attrs: nounwind uwtable
define void @evdns_search_ndots_set(i32 noundef %0) local_unnamed_addr #2 {
  %2 = load ptr, ptr @current_base, align 8
  %3 = getelementptr inbounds nuw i8, ptr %2, i64 344
  %4 = load ptr, ptr %3, align 8
  %.not.i = icmp eq ptr %4, null
  br i1 %.not.i, label %8, label %5

5:                                                ; preds = %1
  %6 = load ptr, ptr getelementptr inbounds nuw (i8, ptr @evthread_lock_fns_, i64 24), align 8
  %7 = tail call i32 %6(i32 noundef 0, ptr noundef nonnull %4) #21
  br label %8

8:                                                ; preds = %5, %1
  %9 = getelementptr inbounds nuw i8, ptr %2, i64 312
  %10 = load ptr, ptr %9, align 8
  %.not10.i = icmp eq ptr %10, null
  br i1 %.not10.i, label %11, label %.thread.i

11:                                               ; preds = %8
  %12 = tail call ptr @event_mm_malloc_(i64 noundef 24) #21
  %.not.i.i = icmp eq ptr %12, null
  br i1 %.not.i.i, label %.thread14.i, label %13

.thread14.i:                                      ; preds = %11
  store ptr null, ptr %9, align 8
  br label %18

13:                                               ; preds = %11
  %14 = getelementptr inbounds nuw i8, ptr %12, i64 8
  tail call void @llvm.memset.p0.i64(ptr noundef nonnull align 8 dereferenceable(24) %14, i8 0, i64 16, i1 false)
  store i32 1, ptr %12, align 8
  %15 = getelementptr inbounds nuw i8, ptr %12, i64 4
  store i32 1, ptr %15, align 4
  store ptr %12, ptr %9, align 8
  br label %.thread.i

.thread.i:                                        ; preds = %13, %8
  %16 = phi ptr [ %12, %13 ], [ %10, %8 ]
  %17 = getelementptr inbounds nuw i8, ptr %16, i64 4
  store i32 %0, ptr %17, align 4
  br label %18

18:                                               ; preds = %.thread.i, %.thread14.i
  %19 = load ptr, ptr %3, align 8
  %.not12.i = icmp eq ptr %19, null
  br i1 %.not12.i, label %evdns_base_search_ndots_set.exit, label %20

20:                                               ; preds = %18
  %21 = load ptr, ptr getelementptr inbounds nuw (i8, ptr @evthread_lock_fns_, i64 32), align 8
  %22 = tail call i32 %21(i32 noundef 0, ptr noundef nonnull %19) #21
  br label %evdns_base_search_ndots_set.exit

evdns_base_search_ndots_set.exit:                 ; preds = %18, %20
  ret void
}